; ModuleID = 'bench/openssl/original/cmll_cfb.ll'
source_filename = "bench/openssl/original/cmll_cfb.ll"
target datalayout = "e-m:e-p270:32:32-p271:32:32-p272:64:64-i64:64-i128:128-f80:128-n8:16:32:64-S128"
target triple = "x86_64-pc-linux-gnu"

; Function Attrs: nounwind uwtable
define void @Camellia_cfb128_encrypt(ptr noundef %0, ptr noundef %1, i64 noundef %2, ptr noundef %3, ptr noundef %4, ptr noundef %5, i32 noundef %6) local_unnamed_addr #0 {
  tail call void @CRYPTO_cfb128_encrypt(ptr noundef %0, ptr noundef %1, i64 noundef %2, ptr noundef %3, ptr noundef %4, ptr noundef %5, i32 noundef %6, ptr noundef nonnull @Camellia_encrypt) #2
  ret void
}

declare void @CRYPTO_cfb128_encrypt(ptr noundef, ptr noundef, i64 noundef, ptr noundef, ptr noundef, ptr noundef, i32 noundef, ptr noundef) local_unnamed_addr #1

declare void @Camellia_encrypt(ptr noundef, ptr noundef, ptr noundef) #1

; Function Attrs: nounwind uwtable
define void @Camellia_cfb1_encrypt(ptr noundef %0, ptr noundef %1, i64 noundef %2, ptr noundef %3, ptr noundef %4, ptr noundef %5, i32 noundef %6) local_unnamed_addr #0 {
  tail call void @CRYPTO_cfb128_1_encrypt(ptr noundef %0, ptr noundef %1, i64 noundef %2, ptr noundef %3, ptr noundef %4, ptr noundef %5, i32 noundef %6, ptr noundef nonnull @Camellia_encrypt) #2
  ret void
}

declare void @CRYPTO_cfb128_1_encrypt(ptr noundef, ptr noundef, i64 noundef, ptr noundef, ptr noundef, ptr noundef, i32 noundef, ptr noundef) local_unnamed_addr #1

; Function Attrs: nounwind uwtable
define void @Camellia_cfb8_encrypt(ptr noundef %0, ptr noundef %1, i64 noundef %2, ptr noundef %3, ptr noundef %4, ptr noundef %5, i32 noundef %6) local_unnamed_addr #0 {
  tail call void @CRYPTO_cfb128_8_encrypt(ptr noundef %0, ptr noundef %1, i64 noundef %2, ptr noundef %3, ptr noundef %4, ptr noundef %5, i32 noundef %6, ptr noundef nonnull @Camellia_encrypt) #2
  ret void
}

declare void @CRYPTO_cfb128_8_encrypt(ptr noundef, ptr noundef, i64 noundef, ptr noundef, ptr noundef, ptr noundef, i32 noundef, ptr noundef) local_unnamed_addr #1


!llvm.module.flags = !{!0, !1, !2}

!0 = !{i32 1, !"wchar_size", i32 4}
!1 = !{i32 8, !"PIC Level", i32 2}
!2 = !{i32 7, !"uwtable", i32 2}
